target datalayout = "e-m:e-p270:32:32-p271:32:32-p272:64:64-i64:64-i128:128-f80:128-n8:16:32:64-S128"
target triple = "x86_64-pc-linux-gnu"

%"struct.std::_Vector_base.6" = type { %"struct.std::_Vector_base<Ipopt::SmartPtr<Ipopt::Vector>, std::allocator<Ipopt::SmartPtr<Ipopt::Vector>>>::_Vector_impl" }
%"struct.std::_Vector_base<Ipopt::SmartPtr<Ipopt::Vector>, std::allocator<Ipopt::SmartPtr<Ipopt::Vector>>>::_Vector_impl" = type { %"struct.std::_Vector_base<Ipopt::SmartPtr<Ipopt::Vector>, std::allocator<Ipopt::SmartPtr<Ipopt::Vector>>>::_Vector_impl_data" }
%"struct.std::_Vector_base<Ipopt::SmartPtr<Ipopt::Vector>, std::allocator<Ipopt::SmartPtr<Ipopt::Vector>>>::_Vector_impl_data" = type { ptr, ptr, ptr }
%"struct.std::_Vector_base.1" = type { %"struct.std::_Vector_base<Ipopt::SmartPtr<const Ipopt::Vector>, std::allocator<Ipopt::SmartPtr<const Ipopt::Vector>>>::_Vector_impl" }
%"struct.std::_Vector_base<Ipopt::SmartPtr<const Ipopt::Vector>, std::allocator<Ipopt::SmartPtr<const Ipopt::Vector>>>::_Vector_impl" = type { %"struct.std::_Vector_base<Ipopt::SmartPtr<const Ipopt::Vector>, std::allocator<Ipopt::SmartPtr<const Ipopt::Vector>>>::_Vector_impl_data" }
%"struct.std::_Vector_base<Ipopt::SmartPtr<const Ipopt::Vector>, std::allocator<Ipopt::SmartPtr<const Ipopt::Vector>>>::_Vector_impl_data" = type { ptr, ptr, ptr }
%"class.Ipopt::Matrix" = type <{ %"class.Ipopt::TaggedObject", %"class.Ipopt::SmartPtr", i32, i8, [3 x i8] }>
%"class.Ipopt::TaggedObject" = type { %"class.Ipopt::ReferencedObject.base", %"class.Ipopt::Subject", i32, i32 }
%"class.Ipopt::ReferencedObject.base" = type <{ ptr, i32 }>
%"class.Ipopt::Subject" = type { ptr, %"class.std::vector" }
%"class.std::vector" = type { %"struct.std::_Vector_base" }
%"struct.std::_Vector_base" = type { %"struct.std::_Vector_base<Ipopt::Observer *, std::allocator<Ipopt::Observer *>>::_Vector_impl" }
%"struct.std::_Vector_base<Ipopt::Observer *, std::allocator<Ipopt::Observer *>>::_Vector_impl" = type { %"struct.std::_Vector_base<Ipopt::Observer *, std::allocator<Ipopt::Observer *>>::_Vector_impl_data" }
%"struct.std::_Vector_base<Ipopt::Observer *, std::allocator<Ipopt::Observer *>>::_Vector_impl_data" = type { ptr, ptr, ptr }
%"class.Ipopt::SmartPtr" = type { ptr }
%"class.Ipopt::MultiVectorMatrix" = type { %"class.Ipopt::Matrix.base", ptr, %"class.std::vector.0", %"class.std::vector.5" }
%"class.Ipopt::Matrix.base" = type <{ %"class.Ipopt::TaggedObject", %"class.Ipopt::SmartPtr", i32, i8 }>
%"class.std::vector.0" = type { %"struct.std::_Vector_base.1" }
%"class.std::vector.5" = type { %"struct.std::_Vector_base.6" }
%"class.Ipopt::MatrixSpace" = type { %"class.Ipopt::ReferencedObject.base", i32, i32, [4 x i8] }
%"class.Ipopt::SmartPtr.11" = type { ptr }
%"class.Ipopt::DenseVector" = type { %"class.Ipopt::Vector.base", ptr, ptr, ptr, i8, i8, double }
%"class.Ipopt::Vector.base" = type <{ %"class.Ipopt::TaggedObject", %"class.Ipopt::SmartPtr.10", %"class.Ipopt::CachedResults", i32, [4 x i8], double, i32, [4 x i8], double, i32, [4 x i8], double, i32, [4 x i8], double, i32, [4 x i8], double, i32, [4 x i8], double, i32, [4 x i8], double, i32, i8 }>
%"class.Ipopt::SmartPtr.10" = type { ptr }
%"class.Ipopt::CachedResults" = type { ptr, i32, ptr }

; Function Attrs: mustprogress nounwind uwtable
define linkonce_odr noundef ptr @_ZN5Ipopt9GetRawPtrINS_6VectorEEEPT_RKNS_8SmartPtrIS2_EE(ptr noundef nonnull align 8 dereferenceable(8) %0) #0 comdat {
  %2 = alloca ptr, align 8
  store ptr %0, ptr %2, align 8, !tbaa !65
  %3 = load ptr, ptr %2, align 8, !tbaa !65
  %4 = getelementptr inbounds nuw %"class.Ipopt::SmartPtr.11", ptr %3, i32 0, i32 0
  %5 = load ptr, ptr %4, align 8, !tbaa !217
  ret ptr %5
}

; Function Attrs: mustprogress nounwind uwtable
define linkonce_odr noundef nonnull align 8 dereferenceable(8) ptr @_ZNSt6vectorIN5Ipopt8SmartPtrINS0_6VectorEEESaIS3_EEixEm(ptr noundef nonnull align 8 dereferenceable(24) %0, i64 noundef %1) #0 comdat align 2 {
  %3 = alloca ptr, align 8
  %4 = alloca i64, align 8
  store ptr %0, ptr %3, align 8, !tbaa !3
  store i64 %1, ptr %4, align 8, !tbaa !54
  %5 = load ptr, ptr %3, align 8
  %6 = getelementptr inbounds nuw %"struct.std::_Vector_base.6", ptr %5, i32 0, i32 0
  %7 = getelementptr inbounds nuw %"struct.std::_Vector_base<Ipopt::SmartPtr<Ipopt::Vector>, std::allocator<Ipopt::SmartPtr<Ipopt::Vector>>>::_Vector_impl_data", ptr %6, i32 0, i32 0
  %8 = load ptr, ptr %7, align 8, !tbaa !8
  %9 = load i64, ptr %4, align 8, !tbaa !54
  %10 = getelementptr inbounds nuw %"class.Ipopt::SmartPtr.11", ptr %8, i64 %9
  ret ptr %10
}

; Function Attrs: mustprogress nounwind uwtable
define linkonce_odr noundef i32 @_ZNK5Ipopt11MatrixSpace5NColsEv(ptr noundef nonnull align 8 dereferenceable(20) %0) #0 comdat align 2 {
  %2 = alloca ptr, align 8
  store ptr %0, ptr %2, align 8, !tbaa !48
  %3 = load ptr, ptr %2, align 8
  %4 = getelementptr inbounds nuw %"class.Ipopt::MatrixSpace", ptr %3, i32 0, i32 2
  %5 = load i32, ptr %4, align 8, !tbaa !50
  ret i32 %5
}

; Function Attrs: mustprogress nounwind uwtable
define linkonce_odr noundef ptr @_ZNK5Ipopt8SmartPtrIKNS_11MatrixSpaceEEptEv(ptr noundef nonnull align 8 dereferenceable(8) %0) #0 comdat align 2 {
  %2 = alloca ptr, align 8
  store ptr %0, ptr %2, align 8, !tbaa !151
  %3 = load ptr, ptr %2, align 8
  %4 = getelementptr inbounds nuw %"class.Ipopt::SmartPtr", ptr %3, i32 0, i32 0
  %5 = load ptr, ptr %4, align 8, !tbaa !153
  ret ptr %5
}

; Function Attrs: inlinehint mustprogress nounwind uwtable
define linkonce_odr noundef ptr @_ZNK5Ipopt11DenseVector6ValuesEv(ptr noundef nonnull align 8 dereferenceable(248) %0) #2 comdat align 2 {
  %2 = alloca ptr, align 8
  store ptr %0, ptr %2, align 8, !tbaa !69
  %3 = load ptr, ptr %2, align 8
  %4 = getelementptr inbounds nuw %"class.Ipopt::DenseVector", ptr %3, i32 0, i32 2
  %5 = load ptr, ptr %4, align 8, !tbaa !87
  ret ptr %5
}

; Function Attrs: inlinehint mustprogress nounwind uwtable
define linkonce_odr noundef ptr @_ZN5Ipopt17MultiVectorMatrix3VecEi(ptr noundef nonnull align 8 dereferenceable(128) %0, i32 noundef %1) #2 comdat align 2 {
  %3 = alloca ptr, align 8
  %4 = alloca i32, align 4
  store ptr %0, ptr %3, align 8, !tbaa !22
  store i32 %1, ptr %4, align 4, !tbaa !62
  %5 = load ptr, ptr %3, align 8
  %6 = getelementptr inbounds nuw %"class.Ipopt::MultiVectorMatrix", ptr %5, i32 0, i32 3
  %7 = load i32, ptr %4, align 4, !tbaa !62
  %8 = sext i32 %7 to i64
  %9 = call noundef nonnull align 8 dereferenceable(8) ptr @_ZNSt6vectorIN5Ipopt8SmartPtrINS0_6VectorEEESaIS3_EEixEm(ptr noundef nonnull align 8 dereferenceable(24) %6, i64 noundef %8) #18
  %10 = call noundef ptr @_ZN5Ipopt9GetRawPtrINS_6VectorEEEPT_RKNS_8SmartPtrIS2_EE(ptr noundef nonnull align 8 dereferenceable(8) %9)
  ret ptr %10
}

; Function Attrs: inlinehint mustprogress uwtable
define linkonce_odr noundef i32 @_ZNK5Ipopt6Matrix5NColsEv(ptr noundef nonnull align 8 dereferenceable(69) %0) #7 comdat align 2 {
  %2 = alloca ptr, align 8
  store ptr %0, ptr %2, align 8, !tbaa !18
  %3 = load ptr, ptr %2, align 8
  %4 = getelementptr inbounds nuw %"class.Ipopt::Matrix", ptr %3, i32 0, i32 1
  %5 = call noundef ptr @_ZNK5Ipopt8SmartPtrIKNS_11MatrixSpaceEEptEv(ptr noundef nonnull align 8 dereferenceable(8) %4)
  %6 = call noundef i32 @_ZNK5Ipopt11MatrixSpace5NColsEv(ptr noundef nonnull align 8 dereferenceable(20) %5)
  ret i32 %6
}

; Function Attrs: mustprogress nounwind uwtable
define linkonce_odr noundef double @_ZNK5Ipopt11DenseVector6ScalarEv(ptr noundef nonnull align 8 dereferenceable(248) %0) #0 comdat align 2 {
  %2 = alloca ptr, align 8
  store ptr %0, ptr %2, align 8, !tbaa !69
  %3 = load ptr, ptr %2, align 8
  %4 = getelementptr inbounds nuw %"class.Ipopt::DenseVector", ptr %3, i32 0, i32 6
  %5 = load double, ptr %4, align 8, !tbaa !86
  ret double %5
}

; Function Attrs: mustprogress nounwind uwtable
define linkonce_odr noundef zeroext i1 @_ZNK5Ipopt11DenseVector13IsHomogeneousEv(ptr noundef nonnull align 8 dereferenceable(248) %0) #0 comdat align 2 {
  %2 = alloca ptr, align 8
  store ptr %0, ptr %2, align 8, !tbaa !69
  %3 = load ptr, ptr %2, align 8
  %4 = getelementptr inbounds nuw %"class.Ipopt::DenseVector", ptr %3, i32 0, i32 5
  %5 = load i8, ptr %4, align 1, !tbaa !76, !range !84, !noundef !85
  %6 = trunc i8 %5 to i1
  ret i1 %6
}

; Function Attrs: mustprogress uwtable
define void @_ZN5Ipopt17MultiVectorMatrix12ScaleColumnsERKNS_6VectorE(ptr noundef nonnull align 8 dereferenceable(128) %0, ptr noundef nonnull align 8 dereferenceable(205) %1) #4 align 2 {
  %3 = alloca ptr, align 8
  %4 = alloca ptr, align 8
  %5 = alloca ptr, align 8
  %6 = alloca double, align 8
  %7 = alloca i32, align 4
  %8 = alloca ptr, align 8
  %9 = alloca i32, align 4
  store ptr %0, ptr %3, align 8, !tbaa !22
  store ptr %1, ptr %4, align 8, !tbaa !63
  %10 = load ptr, ptr %3, align 8
  call void @llvm.lifetime.start.p0(i64 8, ptr %5) #18
  %11 = load ptr, ptr %4, align 8, !tbaa !63
  store ptr %11, ptr %5, align 8, !tbaa !69
  %12 = load ptr, ptr %5, align 8, !tbaa !69
  %13 = call noundef zeroext i1 @_ZNK5Ipopt11DenseVector13IsHomogeneousEv(ptr noundef nonnull align 8 dereferenceable(248) %12)
  br i1 %13, label %14, label %30

14:                                               ; preds = %2
  call void @llvm.lifetime.start.p0(i64 8, ptr %6) #18
  %15 = load ptr, ptr %5, align 8, !tbaa !69
  %16 = call noundef double @_ZNK5Ipopt11DenseVector6ScalarEv(ptr noundef nonnull align 8 dereferenceable(248) %15)
  store double %16, ptr %6, align 8, !tbaa !67
  call void @llvm.lifetime.start.p0(i64 4, ptr %7) #18
  store i32 0, ptr %7, align 4, !tbaa !62
  br label %17

17:                                               ; preds = %26, %14
  %18 = load i32, ptr %7, align 4, !tbaa !62
  %19 = call noundef i32 @_ZNK5Ipopt6Matrix5NColsEv(ptr noundef nonnull align 8 dereferenceable(69) %10)
  %20 = icmp slt i32 %18, %19
  br i1 %20, label %22, label %21

21:                                               ; preds = %17
  call void @llvm.lifetime.end.p0(i64 4, ptr %7) #18
  br label %29

22:                                               ; preds = %17
  %23 = load i32, ptr %7, align 4, !tbaa !62
  %24 = call noundef ptr @_ZN5Ipopt17MultiVectorMatrix3VecEi(ptr noundef nonnull align 8 dereferenceable(128) %10, i32 noundef %23)
  %25 = load double, ptr %6, align 8, !tbaa !67
  call void @_ZN5Ipopt6Vector4ScalEd(ptr noundef nonnull align 8 dereferenceable(205) %24, double noundef %25)
  br label %26

26:                                               ; preds = %22
  %27 = load i32, ptr %7, align 4, !tbaa !62
  %28 = add nsw i32 %27, 1
  store i32 %28, ptr %7, align 4, !tbaa !62
  br label %17, !llvm.loop !97

29:                                               ; preds = %21
  call void @llvm.lifetime.end.p0(i64 8, ptr %6) #18
  br label %50

30:                                               ; preds = %2
  call void @llvm.lifetime.start.p0(i64 8, ptr %8) #18
  %31 = load ptr, ptr %5, align 8, !tbaa !69
  %32 = call noundef ptr @_ZNK5Ipopt11DenseVector6ValuesEv(ptr noundef nonnull align 8 dereferenceable(248) %31)
  store ptr %32, ptr %8, align 8, !tbaa !73
  call void @llvm.lifetime.start.p0(i64 4, ptr %9) #18
  store i32 0, ptr %9, align 4, !tbaa !62
  br label %33

33:                                               ; preds = %46, %30
  %34 = load i32, ptr %9, align 4, !tbaa !62
  %35 = call noundef i32 @_ZNK5Ipopt6Matrix5NColsEv(ptr noundef nonnull align 8 dereferenceable(69) %10)
  %36 = icmp slt i32 %34, %35
  br i1 %36, label %38, label %37

37:                                               ; preds = %33
  call void @llvm.lifetime.end.p0(i64 4, ptr %9) #18
  br label %49

38:                                               ; preds = %33
  %39 = load i32, ptr %9, align 4, !tbaa !62
  %40 = call noundef ptr @_ZN5Ipopt17MultiVectorMatrix3VecEi(ptr noundef nonnull align 8 dereferenceable(128) %10, i32 noundef %39)
  %41 = load ptr, ptr %8, align 8, !tbaa !73
  %42 = load i32, ptr %9, align 4, !tbaa !62
  %43 = sext i32 %42 to i64
  %44 = getelementptr inbounds double, ptr %41, i64 %43
  %45 = load double, ptr %44, align 8, !tbaa !67
  call void @_ZN5Ipopt6Vector4ScalEd(ptr noundef nonnull align 8 dereferenceable(205) %40, double noundef %45)
  br label %46

46:                                               ; preds = %38
  %47 = load i32, ptr %9, align 4, !tbaa !62
  %48 = add nsw i32 %47, 1
  store i32 %48, ptr %9, align 4, !tbaa !62
  br label %33, !llvm.loop !98

49:                                               ; preds = %37
  call void @llvm.lifetime.end.p0(i64 8, ptr %8) #18
  br label %50

50:                                               ; preds = %49, %29
  call void @_ZN5Ipopt12TaggedObject13ObjectChangedEv(ptr noundef nonnull align 8 dereferenceable(56) %10)
  call void @llvm.lifetime.end.p0(i64 8, ptr %5) #18
  ret void
}