; Function Attrs: mustprogress uwtable
define void @_ZN5Ipopt17MultiVectorMatrix12ScaleColumnsERKNS_6VectorE(ptr noundef nonnull align 8 dereferenceable(128) %0, ptr noundef nonnull readonly align 8 captures(none) dereferenceable(205) %1) local_unnamed_addr #4 align 2 {
  %3 = getelementptr inbounds nuw i8, ptr %1, i64 233
  %4 = load i8, ptr %3, align 1, !tbaa !54, !range !64, !noundef !65
  %5 = trunc nuw i8 %4 to i1
  %6 = getelementptr inbounds nuw i8, ptr %0, i64 56
  %7 = load ptr, ptr %6, align 8, !tbaa !21
  %8 = getelementptr inbounds nuw i8, ptr %7, i64 16
  %9 = load i32, ptr %8, align 8, !tbaa !52
  %10 = icmp sgt i32 %9, 0
  br i1 %5, label %11, label %24

11:                                               ; preds = %2
  %12 = getelementptr inbounds nuw i8, ptr %1, i64 240
  %13 = load double, ptr %12, align 8, !tbaa !66
  br i1 %10, label %.lr.ph17, label %.loopexit

.lr.ph17:                                         ; preds = %11
  %14 = getelementptr inbounds nuw i8, ptr %0, i64 104
  br label %15

15:                                               ; preds = %.lr.ph17, %15
  %indvars.iv20 = phi i64 [ 0, %.lr.ph17 ], [ %indvars.iv.next21, %15 ]
  %16 = load ptr, ptr %14, align 8, !tbaa !24
  %17 = getelementptr inbounds nuw %"class.Ipopt::SmartPtr.11", ptr %16, i64 %indvars.iv20
  %18 = load ptr, ptr %17, align 8, !tbaa !28
  tail call void @_ZN5Ipopt6Vector4ScalEd(ptr noundef nonnull align 8 dereferenceable(205) %18, double noundef %13)
  %indvars.iv.next21 = add nuw nsw i64 %indvars.iv20, 1
  %19 = load ptr, ptr %6, align 8, !tbaa !21
  %20 = getelementptr inbounds nuw i8, ptr %19, i64 16
  %21 = load i32, ptr %20, align 8, !tbaa !52
  %22 = sext i32 %21 to i64
  %23 = icmp slt i64 %indvars.iv.next21, %22
  br i1 %23, label %15, label %.loopexit, !llvm.loop !87

24:                                               ; preds = %2
  %25 = getelementptr inbounds nuw i8, ptr %1, i64 216
  %26 = load ptr, ptr %25, align 8, !tbaa !68
  br i1 %10, label %.lr.ph, label %.loopexit

.lr.ph:                                           ; preds = %24
  %27 = getelementptr inbounds nuw i8, ptr %0, i64 104
  br label %28

28:                                               ; preds = %.lr.ph, %28
  %indvars.iv = phi i64 [ 0, %.lr.ph ], [ %indvars.iv.next, %28 ]
  %29 = load ptr, ptr %27, align 8, !tbaa !24
  %30 = getelementptr inbounds nuw %"class.Ipopt::SmartPtr.11", ptr %29, i64 %indvars.iv
  %31 = load ptr, ptr %30, align 8, !tbaa !28
  %32 = getelementptr inbounds nuw double, ptr %26, i64 %indvars.iv
  %33 = load double, ptr %32, align 8, !tbaa !69
  tail call void @_ZN5Ipopt6Vector4ScalEd(ptr noundef nonnull align 8 dereferenceable(205) %31, double noundef %33)
  %indvars.iv.next = add nuw nsw i64 %indvars.iv, 1
  %34 = load ptr, ptr %6, align 8, !tbaa !21
  %35 = getelementptr inbounds nuw i8, ptr %34, i64 16
  %36 = load i32, ptr %35, align 8, !tbaa !52
  %37 = sext i32 %36 to i64
  %38 = icmp slt i64 %indvars.iv.next, %37
  br i1 %38, label %28, label %.loopexit, !llvm.loop !88

.loopexit:                                        ; preds = %28, %15, %24, %11
  tail call void @_ZN5Ipopt12TaggedObject13ObjectChangedEv(ptr noundef nonnull align 8 dereferenceable(56) %0)
  ret void
}